; Function Attrs: nounwind uwtable
define noundef i32 @_php_stream_putc(ptr noundef %0, i32 noundef %1) local_unnamed_addr #2 {
  %3 = alloca i8, align 1
  %4 = trunc i32 %1 to i8
  store i8 %4, ptr %3, align 1
  %5 = load ptr, ptr %0, align 8
  %6 = load ptr, ptr %5, align 8
  %7 = icmp eq ptr %6, null
  br i1 %7, label %8, label %9

8:                                                ; preds = %2
  tail call void (ptr, i32, ptr, ...) @php_error_docref(ptr noundef null, i32 noundef 8, ptr noundef nonnull @.str.1) #27
  br label %_php_stream_write.exit.thread

9:                                                ; preds = %2
  %10 = getelementptr inbounds i8, ptr %0, i64 40
  %11 = load ptr, ptr %10, align 8
  %.not.i = icmp eq ptr %11, null
  br i1 %.not.i, label %14, label %12

12:                                               ; preds = %9
  %13 = call fastcc i64 @_php_stream_write_filtered(ptr noundef nonnull %0, ptr noundef nonnull %3, i64 noundef 1, i32 noundef 0)
  br label %16

14:                                               ; preds = %9
  %15 = call fastcc i64 @_php_stream_write_buffer(ptr noundef nonnull %0, ptr noundef nonnull %3, i64 noundef 1)
  br label %16

16:                                               ; preds = %14, %12
  %.0.i = phi i64 [ %13, %12 ], [ %15, %14 ]
  %.0.i.fr = freeze i64 %.0.i
  %.not15.i = icmp eq i64 %.0.i.fr, 0
  br i1 %.not15.i, label %_php_stream_write.exit.thread, label %_php_stream_write.exit

_php_stream_write.exit:                           ; preds = %16
  %17 = getelementptr inbounds i8, ptr %0, i64 116
  %18 = load i32, ptr %17, align 4
  %19 = or i32 %18, -2147483648
  store i32 %19, ptr %17, align 4
  %20 = icmp sgt i64 %.0.i.fr, 0
  %spec.select = select i1 %20, i32 1, i32 -1
  br label %_php_stream_write.exit.thread

_php_stream_write.exit.thread:                    ; preds = %_php_stream_write.exit, %16, %8
  %21 = phi i32 [ -1, %8 ], [ -1, %16 ], [ %spec.select, %_php_stream_write.exit ]
  ret i32 %21
}